Certificate:
    Data:
        Version: 3 (0x2)
        Serial Number:
            57:42:f7:74:21:82:96:4d:45:c9:16:c3:8c:5b:80:41:9c:f4:8b:5a
        Signature Algorithm: sha256WithRSAEncryption
        Issuer: C=US, ST=Maryland, L=Forest Hill, O=The Apache Software Foundation, OU=Apache Thrift, CN=localhost, emailAddress=dev@thrift.apache.org
        Validity
            Not Before: Jun 30 15:06:08 2026 GMT
            Not After : Sep 16 15:06:08 2034 GMT
        Subject: C=US, ST=Maryland, L=Forest Hill, O=The Apache Software Foundation, OU=Apache Thrift, CN=localhost, emailAddress=dev@thrift.apache.org
        Subject Public Key Info:
            Public Key Algorithm: rsaEncryption
                Public-Key: (2048 bit)
                Modulus:
                    00:9d:f2:19:ef:b5:30:d4:01:3d:ff:d2:44:67:56:
                    81:fc:ec:6b:37:d7:bb:ba:10:32:21:3b:bc:4e:ae:
                    73:06:bd:e1:73:bd:d4:ee:a5:0d:a4:75:ac:ee:b3:
                    1a:11:12:98:e5:b9:92:40:9d:f4:56:86:27:15:3b:
                    e2:6d:72:6c:5b:97:fb:7c:65:93:4d:fd:f9:09:2d:
                    c4:e1:3c:f7:4f:2e:69:fc:04:d5:5f:6c:c4:6a:0d:
                    ae:3b:77:51:46:57:76:ed:02:66:60:84:74:b6:36:
                    6b:53:6c:3c:fe:29:18:6a:2e:12:1f:dc:25:33:78:
                    4c:0d:43:c8:19:9b:e1:a1:45:ee:2e:a0:e2:16:9e:
                    b1:d5:84:f5:6c:cb:41:95:72:7b:10:fe:77:98:d7:
                    fe:23:c0:cc:9c:3d:9b:c9:3c:5b:76:11:84:52:9d:
                    d4:12:c6:0d:33:da:41:c6:fa:4c:24:f7:76:a0:0c:
                    7b:62:9a:3b:a1:72:ce:cd:a1:c8:f3:ec:7b:84:77:
                    0b:e0:e9:70:c9:06:c0:ad:81:d5:e0:a6:d9:a8:a4:
                    5c:79:5e:a8:84:22:c8:bd:c5:09:b8:92:1a:10:cf:
                    87:ba:6c:9d:38:15:04:16:a7:75:12:ed:2d:ba:02:
                    59:1a:59:f1:d3:5e:c3:82:ad:67:51:2d:26:47:ef:
                    d9:11
                Exponent: 65537 (0x10001)
        X509v3 extensions:
            X509v3 Subject Key Identifier: 
                63:A0:6C:52:23:7F:5F:E8:9F:EA:EE:45:AA:A5:59:20:D9:B2:B7:F5
            X509v3 Authority Key Identifier: 
                63:A0:6C:52:23:7F:5F:E8:9F:EA:EE:45:AA:A5:59:20:D9:B2:B7:F5
            X509v3 Basic Constraints: critical
                CA:TRUE
    Signature Algorithm: sha256WithRSAEncryption
    Signature Value:
        1c:57:79:d9:a8:dc:69:e7:c9:2d:d2:a2:5f:34:a9:c3:c5:33:
        cb:2f:ff:d2:9b:47:13:2a:de:9f:c9:4d:f8:53:aa:4a:d7:ed:
        42:c8:82:d0:72:41:45:52:7f:a8:ab:32:ac:f8:60:84:61:52:
        e9:ba:9a:52:e8:4f:90:7b:05:d3:d1:bd:46:e5:98:77:7d:d2:
        66:4b:38:0b:c8:da:d5:ac:8e:db:ee:f4:42:bc:f1:6d:2f:31:
        ba:5d:8c:c5:c5:3f:4c:f5:05:32:f9:32:75:38:8e:09:dc:5e:
        68:e2:64:e1:51:d9:a9:60:e1:da:0e:5b:70:40:1a:58:61:07:
        d5:66:94:f7:6a:ef:9f:48:fc:8f:7e:17:90:b9:c6:95:6b:d1:
        cb:1a:93:15:94:12:2e:7f:40:9d:63:aa:75:53:76:70:49:70:
        62:75:47:fd:3e:58:c2:88:1f:fd:b6:7c:9b:8c:e8:a9:fd:c5:
        81:ce:97:1e:b7:b9:26:8e:19:0e:32:2f:85:90:57:e2:34:39:
        14:a4:53:3d:8f:7a:74:d7:de:53:30:e8:a4:f7:73:33:74:37:
        c7:5f:e6:78:eb:80:f4:fe:a9:12:3c:13:19:7b:61:d4:e5:7b:
        d3:d4:49:eb:2e:da:01:bf:46:e2:27:68:5b:ff:4d:ce:8e:3e:
        30:ee:60:2a
-----BEGIN CERTIFICATE-----
MIIERTCCAy2gAwIBAgIUV0L3dCGClk1FyRbDjFuAQZz0i1owDQYJKoZIhvcNAQEL
BQAwgbExCzAJBgNVBAYTAlVTMREwDwYDVQQIDAhNYXJ5bGFuZDEUMBIGA1UEBwwL
Rm9yZXN0IEhpbGwxJzAlBgNVBAoMHlRoZSBBcGFjaGUgU29mdHdhcmUgRm91bmRh
dGlvbjEWMBQGA1UECwwNQXBhY2hlIFRocmlmdDESMBAGA1UEAwwJbG9jYWxob3N0
MSQwIgYJKoZIhvcNAQkBFhVkZXZAdGhyaWZ0LmFwYWNoZS5vcmcwHhcNMjYwNjMw
MTUwNjA4WhcNMzQwOTE2MTUwNjA4WjCBsTELMAkGA1UEBhMCVVMxETAPBgNVBAgM
CE1hcnlsYW5kMRQwEgYDVQQHDAtGb3Jlc3QgSGlsbDEnMCUGA1UECgweVGhlIEFw
YWNoZSBTb2Z0d2FyZSBGb3VuZGF0aW9uMRYwFAYDVQQLDA1BcGFjaGUgVGhyaWZ0
MRIwEAYDVQQDDAlsb2NhbGhvc3QxJDAiBgkqhkiG9w0BCQEWFWRldkB0aHJpZnQu
YXBhY2hlLm9yZzCCASIwDQYJKoZIhvcNAQEBBQADggEPADCCAQoCggEBAJ3yGe+1
MNQBPf/SRGdWgfzsazfXu7oQMiE7vE6ucwa94XO91O6lDaR1rO6zGhESmOW5kkCd
9FaGJxU74m1ybFuX+3xlk039+QktxOE8908uafwE1V9sxGoNrjt3UUZXdu0CZmCE
dLY2a1NsPP4pGGouEh/cJTN4TA1DyBmb4aFF7i6g4haesdWE9WzLQZVyexD+d5jX
/iPAzJw9m8k8W3YRhFKd1BLGDTPaQcb6TCT3dqAMe2KaO6Fyzs2hyPPse4R3C+Dp
cMkGwK2B1eCm2aikXHleqIQiyL3FCbiSGhDPh7psnTgVBBandRLtLboCWRpZ8dNe
w4KtZ1EtJkfv2RECAwEAAaNTMFEwHQYDVR0OBBYEFGOgbFIjf1/on+ruRaqlWSDZ
srf1MB8GA1UdIwQYMBaAFGOgbFIjf1/on+ruRaqlWSDZsrf1MA8GA1UdEwEB/wQF
MAMBAf8wDQYJKoZIhvcNAQELBQADggEBABxXedmo3GnnyS3Sol80qcPFM8sv/9Kb
RxMq3p/JTfhTqkrX7ULIgtByQUVSf6irMqz4YIRhUum6mlLoT5B7BdPRvUblmHd9
0mZLOAvI2tWsjtvu9EK88W0vMbpdjMXFP0z1BTL5MnU4jgncXmjiZOFR2alg4doO
W3BAGlhhB9VmlPdq759I/I9+F5C5xpVr0csakxWUEi5/QJ1jqnVTdnBJcGJ1R/0+
WMKIH/22fJuM6Kn9xYHOlx63uSaOGQ4yL4WQV+I0ORSkUz2PenTX3lMw6KT3czN0
N8df5njrgPT+qRI8Exl7YdTle9PUSesu2gG/RuInaFv/Tc6OPjDuYCo=
-----END CERTIFICATE-----
